; Function Attrs: nounwind uwtable
define dso_local noalias noundef ptr @virtual_opendir(ptr noundef readonly captures(none) %0) local_unnamed_addr #0 {
  %2 = alloca %struct._cwd_state, align 8
  call void @llvm.lifetime.start.p0(i64 16, ptr nonnull %2) #22
  %3 = load i64, ptr getelementptr inbounds nuw (i8, ptr @cwd_globals, i64 8), align 8, !tbaa !13
  %4 = getelementptr inbounds nuw i8, ptr %2, i64 8
  store i64 %3, ptr %4, align 8, !tbaa !12
  %5 = add i64 %3, 1
  %6 = tail call noalias ptr @_emalloc(i64 noundef %5) #24
  store ptr %6, ptr %2, align 8, !tbaa !4
  %7 = load ptr, ptr @cwd_globals, align 8, !tbaa !15
  %8 = load i64, ptr getelementptr inbounds nuw (i8, ptr @cwd_globals, i64 8), align 8, !tbaa !13
  %9 = add i64 %8, 1
  tail call void @llvm.memcpy.p0.p0.i64(ptr align 1 %6, ptr align 1 %7, i64 %9, i1 false)
  %10 = call i32 @virtual_file_ex(ptr noundef nonnull %2, ptr noundef %0, ptr noundef null, i32 noundef 2)
  %.not = icmp eq i32 %10, 0
  %11 = load ptr, ptr %2, align 8, !tbaa !4
  br i1 %.not, label %12, label %15

12:                                               ; preds = %1
  %13 = call ptr @opendir(ptr noundef %11)
  %14 = load ptr, ptr %2, align 8, !tbaa !4
  br label %15

15:                                               ; preds = %1, %12
  %.sink = phi ptr [ %14, %12 ], [ %11, %1 ]
  %.0 = phi ptr [ %13, %12 ], [ null, %1 ]
  call void @_efree(ptr noundef %.sink) #22
  call void @llvm.lifetime.end.p0(i64 16, ptr nonnull %2) #22
  ret ptr %.0
}